; Function Attrs: nounwind sspstrong uwtable
define dso_local i32 @onig_new_without_alloc(ptr noundef %0, ptr noundef %1, ptr noundef %2, i32 noundef %3, ptr noundef %4, ptr noundef %5, ptr noundef captures(address_is_null) %6) local_unnamed_addr #4 {
  %8 = load i32, ptr @OnigDefaultCaseFoldFlag, align 4, !tbaa !7
  %.b.i = load i1, ptr @onig_inited, align 4
  br i1 %.b.i, label %10, label %onig_init.exit.i

onig_init.exit.i:                                 ; preds = %7
  store i1 true, ptr @onig_inited, align 4
  %9 = tail call i32 @onigenc_init() #20
  br label %10

10:                                               ; preds = %onig_init.exit.i, %7
  %11 = icmp eq ptr %0, null
  br i1 %11, label %onig_reg_init.exit.thread, label %12

12:                                               ; preds = %10
  %13 = icmp eq ptr %4, null
  br i1 %13, label %onig_reg_init.exit.thread, label %14

14:                                               ; preds = %12
  %15 = and i32 %3, 384
  %16 = icmp eq i32 %15, 384
  br i1 %16, label %onig_reg_init.exit.thread, label %17

17:                                               ; preds = %14
  %18 = and i32 %3, 64
  %.not.i = icmp eq i32 %18, 0
  %19 = getelementptr inbounds nuw i8, ptr %5, i64 12
  %20 = load i32, ptr %19, align 4, !tbaa !214
  %21 = or i32 %20, %3
  %22 = and i32 %21, -9
  %.027.i = select i1 %.not.i, i32 %21, i32 %22
  %23 = getelementptr inbounds nuw i8, ptr %0, i64 72
  store ptr %4, ptr %23, align 8, !tbaa !73
  %24 = getelementptr inbounds nuw i8, ptr %0, i64 56
  store i32 %.027.i, ptr %24, align 8, !tbaa !57
  %25 = getelementptr inbounds nuw i8, ptr %0, i64 80
  store ptr %5, ptr %25, align 8, !tbaa !215
  %26 = getelementptr inbounds nuw i8, ptr %0, i64 100
  store i32 0, ptr %26, align 4, !tbaa !102
  %27 = getelementptr inbounds nuw i8, ptr %0, i64 136
  store ptr null, ptr %27, align 8, !tbaa !23
  %28 = getelementptr inbounds nuw i8, ptr %0, i64 408
  %29 = getelementptr inbounds nuw i8, ptr %0, i64 448
  store ptr null, ptr %29, align 8, !tbaa !27
  %30 = getelementptr inbounds nuw i8, ptr %0, i64 88
  store ptr null, ptr %30, align 8, !tbaa !39
  %31 = getelementptr inbounds nuw i8, ptr %0, i64 96
  tail call void @llvm.memset.p0.i64(ptr noundef nonnull align 8 dereferenceable(16) %0, i8 0, i64 16, i1 false)
  tail call void @llvm.memset.p0.i64(ptr noundef nonnull align 8 dereferenceable(16) %28, i8 0, i64 16, i1 false)
  store i32 %8, ptr %31, align 8, !tbaa !78
  %32 = getelementptr inbounds nuw i8, ptr %0, i64 440
  store i64 0, ptr %32, align 8, !tbaa !216
  %33 = tail call i32 @onig_compile_ruby(ptr noundef nonnull %0, ptr noundef %1, ptr noundef %2, ptr noundef %6, ptr noundef null, i32 noundef 0)
  br label %onig_reg_init.exit.thread

onig_reg_init.exit.thread:                        ; preds = %14, %12, %10, %17
  %.0 = phi i32 [ %33, %17 ], [ -403, %14 ], [ -21, %12 ], [ -30, %10 ]
  ret i32 %.0
}